target datalayout = "e-m:e-p270:32:32-p271:32:32-p272:64:64-i64:64-i128:128-f80:128-n8:16:32:64-S128"
target triple = "x86_64-pc-linux-gnu"

%struct.H5CX_node_t = type { %struct.H5CX_t, ptr }
%struct.H5CX_t = type { i64, ptr, i64, ptr, i64, ptr, i64, ptr, i64, ptr, i64, ptr, i64, i32, i64, i8, ptr, i8, ptr, i8, i32, i8, [3 x double], i8, i64, i8, i32, i8, %struct.H5Z_cb_t, i8, ptr, i8, %struct.H5T_vlen_alloc_info_t, i8, %struct.H5T_conv_cb_t, i8, i32, i8, i8, i8, i32, i8, i8, i32, i8, i8, i32, i8, i32, i8, i64, i8, i8, i8, i8, i8, ptr, i8, ptr, i8, i32, i8, i32, i8, %struct.H5VL_connector_prop_t, i8, ptr, i8 }
%struct.H5Z_cb_t = type { ptr, ptr }
%struct.H5T_vlen_alloc_info_t = type { ptr, ptr, ptr, ptr }
%struct.H5T_conv_cb_t = type { ptr, ptr }
%struct.H5VL_connector_prop_t = type { ptr, ptr }
%struct.H5VL_file_specific_args_t = type { i32, %union.anon.14 }
%union.anon.14 = type { %struct.anon.17 }
%struct.anon.17 = type { ptr, i64, ptr }

@H5_libinit_g = external global i8, align 1
@H5_libterm_g = external global i8, align 1
@.str = private unnamed_addr constant [97 x i8] c"generated/home/dtcxzyw/WorkSpace/Projects/compilers/llvm-opt-benchmark/bench/hdf5/hdf5/src/H5F.c\00", align 1
@H5E_FUNC_g = external global i64, align 8
@H5E_CANTINIT_g = external global i64, align 8
@.str.1 = private unnamed_addr constant [30 x i8] c"library initialization failed\00", align 1
@H5F_init_g = external global i8, align 1
@.str.2 = private unnamed_addr constant [32 x i8] c"interface initialization failed\00", align 1
@H5E_CANTSET_g = external global i64, align 8
@.str.3 = private unnamed_addr constant [22 x i8] c"can't set API context\00", align 1
@H5E_ARGS_g = external global i64, align 8
@H5E_BADTYPE_g = external global i64, align 8
@H5P_LST_DATASET_XFER_ID_g = external global i64, align 8
@H5E_FILE_g = external global i64, align 8
@__func__.H5Fis_accessible = private unnamed_addr constant [17 x i8] c"H5Fis_accessible\00", align 1
@H5E_BADRANGE_g = external global i64, align 8
@.str.19 = private unnamed_addr constant [23 x i8] c"no file name specified\00", align 1
@H5P_LST_FILE_ACCESS_ID_g = external global i64, align 8
@H5P_CLS_FILE_ACCESS_ID_g = external global i64, align 8
@.str.20 = private unnamed_addr constant [30 x i8] c"not file access property list\00", align 1
@H5E_NOTHDF5_g = external global i64, align 8
@.str.21 = private unnamed_addr constant [50 x i8] c"unable to determine if file is accessible as HDF5\00", align 1

; Function Attrs: nounwind uwtable
define i32 @H5Fis_accessible(ptr noundef %0, i64 noundef %1) #0 {
  %3 = alloca ptr, align 8
  %4 = alloca i64, align 8
  %5 = alloca %struct.H5VL_file_specific_args_t, align 8
  %6 = alloca i8, align 1
  %7 = alloca i32, align 4
  %8 = alloca %struct.H5CX_node_t, align 8
  %9 = alloca i8, align 1
  %10 = alloca i8, align 1
  store ptr %0, ptr %3, align 8, !tbaa !32
  store i64 %1, ptr %4, align 8, !tbaa !3
  call void @llvm.lifetime.start.p0(i64 32, ptr %5) #5
  call void @llvm.lifetime.start.p0(i64 1, ptr %6) #5
  store i8 0, ptr %6, align 1, !tbaa !7
  call void @llvm.lifetime.start.p0(i64 4, ptr %7) #5
  call void @llvm.lifetime.start.p0(i64 480, ptr %8) #5
  call void @llvm.memset.p0.i64(ptr align 8 %8, i8 0, i64 480, i1 false)
  call void @llvm.lifetime.start.p0(i64 1, ptr %9) #5
  store i8 0, ptr %9, align 1, !tbaa !7
  call void @llvm.lifetime.start.p0(i64 1, ptr %10) #5
  store i8 0, ptr %10, align 1, !tbaa !7
  br label %11

11:                                               ; preds = %2
  %12 = load i8, ptr @H5_libinit_g, align 1, !tbaa !7, !range !9, !noundef !10
  %13 = trunc i8 %12 to i1
  br i1 %13, label %18, label %14

14:                                               ; preds = %11
  %15 = load i8, ptr @H5_libterm_g, align 1, !tbaa !7, !range !9, !noundef !10
  %16 = trunc i8 %15 to i1
  %17 = xor i1 %16, true
  br label %18

18:                                               ; preds = %14, %11
  %19 = phi i1 [ false, %11 ], [ %17, %14 ]
  %20 = xor i1 %19, true
  %21 = xor i1 %20, true
  %22 = zext i1 %21 to i32
  %23 = sext i32 %22 to i64
  %24 = call i64 @llvm.expect.i64(i64 %23, i64 0)
  %25 = icmp ne i64 %24, 0
  br i1 %25, label %26, label %55

26:                                               ; preds = %18
  %27 = call i32 @H5_init_library()
  %28 = icmp slt i32 %27, 0
  %29 = xor i1 %28, true
  %30 = xor i1 %29, true
  %31 = zext i1 %30 to i32
  %32 = sext i32 %31 to i64
  %33 = call i64 @llvm.expect.i64(i64 %32, i64 0)
  %34 = icmp ne i64 %33, 0
  br i1 %34, label %35, label %54

35:                                               ; preds = %26
  br label %36

36:                                               ; preds = %35
  br label %37

37:                                               ; preds = %36
  br label %38

38:                                               ; preds = %37
  %39 = load i64, ptr @H5E_FUNC_g, align 8, !tbaa !3
  %40 = load i64, ptr @H5E_CANTINIT_g, align 8, !tbaa !3
  %41 = call i32 (ptr, ptr, i32, i64, i64, ptr, ...) @H5E_printf_stack(ptr noundef @.str, ptr noundef @__func__.H5Fis_accessible, i32 noundef 470, i64 noundef %39, i64 noundef %40, ptr noundef @.str.1)
  br label %42

42:                                               ; preds = %38
  br label %43

43:                                               ; preds = %42
  store i8 1, ptr %10, align 1, !tbaa !7
  %44 = load i8, ptr %10, align 1, !tbaa !7, !range !9, !noundef !10
  %45 = trunc i8 %44 to i1
  %46 = zext i1 %45 to i8
  store i8 %46, ptr %10, align 1, !tbaa !7
  br label %47

47:                                               ; preds = %43
  br label %48

48:                                               ; preds = %47
  br label %49

49:                                               ; preds = %48
  store i32 -1, ptr %7, align 4, !tbaa !18
  br label %220

50:                                               ; No predecessors!
  br label %51

51:                                               ; preds = %50
  br label %52

52:                                               ; preds = %51
  br label %53

53:                                               ; preds = %52
  br label %54

54:                                               ; preds = %53, %26
  br label %55

55:                                               ; preds = %54, %18
  %56 = load i8, ptr @H5F_init_g, align 1, !tbaa !7, !range !9, !noundef !10
  %57 = trunc i8 %56 to i1
  br i1 %57, label %62, label %58

58:                                               ; preds = %55
  %59 = load i8, ptr @H5_libterm_g, align 1, !tbaa !7, !range !9, !noundef !10
  %60 = trunc i8 %59 to i1
  %61 = xor i1 %60, true
  br label %62

62:                                               ; preds = %58, %55
  %63 = phi i1 [ false, %55 ], [ %61, %58 ]
  %64 = xor i1 %63, true
  %65 = xor i1 %64, true
  %66 = zext i1 %65 to i32
  %67 = sext i32 %66 to i64
  %68 = call i64 @llvm.expect.i64(i64 %67, i64 0)
  %69 = icmp ne i64 %68, 0
  br i1 %69, label %70, label %93

70:                                               ; preds = %62
  store i8 1, ptr @H5F_init_g, align 1, !tbaa !7
  %71 = call i32 @H5F__init_package()
  %72 = icmp slt i32 %71, 0
  br i1 %72, label %73, label %92

73:                                               ; preds = %70
  store i8 0, ptr @H5F_init_g, align 1, !tbaa !7
  br label %74

74:                                               ; preds = %73
  br label %75

75:                                               ; preds = %74
  br label %76

76:                                               ; preds = %75
  %77 = load i64, ptr @H5E_FUNC_g, align 8, !tbaa !3
  %78 = load i64, ptr @H5E_CANTINIT_g, align 8, !tbaa !3
  %79 = call i32 (ptr, ptr, i32, i64, i64, ptr, ...) @H5E_printf_stack(ptr noundef @.str, ptr noundef @__func__.H5Fis_accessible, i32 noundef 470, i64 noundef %77, i64 noundef %78, ptr noundef @.str.2)
  br label %80

80:                                               ; preds = %76
  br label %81

81:                                               ; preds = %80
  store i8 1, ptr %10, align 1, !tbaa !7
  %82 = load i8, ptr %10, align 1, !tbaa !7, !range !9, !noundef !10
  %83 = trunc i8 %82 to i1
  %84 = zext i1 %83 to i8
  store i8 %84, ptr %10, align 1, !tbaa !7
  br label %85

85:                                               ; preds = %81
  br label %86

86:                                               ; preds = %85
  br label %87

87:                                               ; preds = %86
  store i32 -1, ptr %7, align 4, !tbaa !18
  br label %220

88:                                               ; No predecessors!
  br label %89

89:                                               ; preds = %88
  br label %90

90:                                               ; preds = %89
  br label %91

91:                                               ; preds = %90
  br label %92

92:                                               ; preds = %91, %70
  br label %93

93:                                               ; preds = %92, %62
  br label %94

94:                                               ; preds = %93
  br label %95

95:                                               ; preds = %94
  br label %96

96:                                               ; preds = %95
  %97 = call i32 @H5CX_push(ptr noundef %8)
  %98 = icmp slt i32 %97, 0
  %99 = xor i1 %98, true
  %100 = xor i1 %99, true
  %101 = zext i1 %100 to i32
  %102 = sext i32 %101 to i64
  %103 = call i64 @llvm.expect.i64(i64 %102, i64 0)
  %104 = icmp ne i64 %103, 0
  br i1 %104, label %105, label %124

105:                                              ; preds = %96
  br label %106

106:                                              ; preds = %105
  br label %107

107:                                              ; preds = %106
  br label %108

108:                                              ; preds = %107
  %109 = load i64, ptr @H5E_FUNC_g, align 8, !tbaa !3
  %110 = load i64, ptr @H5E_CANTSET_g, align 8, !tbaa !3
  %111 = call i32 (ptr, ptr, i32, i64, i64, ptr, ...) @H5E_printf_stack(ptr noundef @.str, ptr noundef @__func__.H5Fis_accessible, i32 noundef 470, i64 noundef %109, i64 noundef %110, ptr noundef @.str.3)
  br label %112

112:                                              ; preds = %108
  br label %113

113:                                              ; preds = %112
  store i8 1, ptr %10, align 1, !tbaa !7
  %114 = load i8, ptr %10, align 1, !tbaa !7, !range !9, !noundef !10
  %115 = trunc i8 %114 to i1
  %116 = zext i1 %115 to i8
  store i8 %116, ptr %10, align 1, !tbaa !7
  br label %117

117:                                              ; preds = %113
  br label %118

118:                                              ; preds = %117
  br label %119

119:                                              ; preds = %118
  store i32 -1, ptr %7, align 4, !tbaa !18
  br label %220

120:                                              ; No predecessors!
  br label %121

121:                                              ; preds = %120
  br label %122

122:                                              ; preds = %121
  br label %123

123:                                              ; preds = %122
  br label %125

124:                                              ; preds = %96
  store i8 1, ptr %9, align 1, !tbaa !7
  br label %125

125:                                              ; preds = %124, %123
  br label %126

126:                                              ; preds = %125
  br label %127

127:                                              ; preds = %126
  %128 = call i32 @H5E_clear_stack()
  %129 = load ptr, ptr %3, align 8, !tbaa !32
  %130 = icmp ne ptr %129, null
  br i1 %130, label %131, label %135

131:                                              ; preds = %127
  %132 = load ptr, ptr %3, align 8, !tbaa !32
  %133 = load i8, ptr %132, align 1, !tbaa !17
  %134 = icmp ne i8 %133, 0
  br i1 %134, label %154, label %135

135:                                              ; preds = %131, %127
  br label %136

136:                                              ; preds = %135
  br label %137

137:                                              ; preds = %136
  br label %138

138:                                              ; preds = %137
  %139 = load i64, ptr @H5E_ARGS_g, align 8, !tbaa !3
  %140 = load i64, ptr @H5E_BADRANGE_g, align 8, !tbaa !3
  %141 = call i32 (ptr, ptr, i32, i64, i64, ptr, ...) @H5E_printf_stack(ptr noundef @.str, ptr noundef @__func__.H5Fis_accessible, i32 noundef 474, i64 noundef %139, i64 noundef %140, ptr noundef @.str.19)
  br label %142

142:                                              ; preds = %138
  br label %143

143:                                              ; preds = %142
  store i8 1, ptr %10, align 1, !tbaa !7
  %144 = load i8, ptr %10, align 1, !tbaa !7, !range !9, !noundef !10
  %145 = trunc i8 %144 to i1
  %146 = zext i1 %145 to i8
  store i8 %146, ptr %10, align 1, !tbaa !7
  br label %147

147:                                              ; preds = %143
  br label %148

148:                                              ; preds = %147
  br label %149

149:                                              ; preds = %148
  store i32 -1, ptr %7, align 4, !tbaa !18
  br label %220

150:                                              ; No predecessors!
  br label %151

151:                                              ; preds = %150
  br label %152

152:                                              ; preds = %151
  br label %153

153:                                              ; preds = %152
  br label %154

154:                                              ; preds = %153, %131
  %155 = load i64, ptr %4, align 8, !tbaa !3
  %156 = icmp eq i64 0, %155
  br i1 %156, label %157, label %159

157:                                              ; preds = %154
  %158 = load i64, ptr @H5P_LST_FILE_ACCESS_ID_g, align 8, !tbaa !3
  store i64 %158, ptr %4, align 8, !tbaa !3
  br label %184

159:                                              ; preds = %154
  %160 = load i64, ptr %4, align 8, !tbaa !3
  %161 = load i64, ptr @H5P_CLS_FILE_ACCESS_ID_g, align 8, !tbaa !3
  %162 = call i32 @H5P_isa_class(i64 noundef %160, i64 noundef %161)
  %163 = icmp ne i32 1, %162
  br i1 %163, label %164, label %183

164:                                              ; preds = %159
  br label %165

165:                                              ; preds = %164
  br label %166

166:                                              ; preds = %165
  br label %167

167:                                              ; preds = %166
  %168 = load i64, ptr @H5E_ARGS_g, align 8, !tbaa !3
  %169 = load i64, ptr @H5E_BADTYPE_g, align 8, !tbaa !3
  %170 = call i32 (ptr, ptr, i32, i64, i64, ptr, ...) @H5E_printf_stack(ptr noundef @.str, ptr noundef @__func__.H5Fis_accessible, i32 noundef 480, i64 noundef %168, i64 noundef %169, ptr noundef @.str.20)
  br label %171

171:                                              ; preds = %167
  br label %172

172:                                              ; preds = %171
  store i8 1, ptr %10, align 1, !tbaa !7
  %173 = load i8, ptr %10, align 1, !tbaa !7, !range !9, !noundef !10
  %174 = trunc i8 %173 to i1
  %175 = zext i1 %174 to i8
  store i8 %175, ptr %10, align 1, !tbaa !7
  br label %176

176:                                              ; preds = %172
  br label %177

177:                                              ; preds = %176
  br label %178

178:                                              ; preds = %177
  store i32 -1, ptr %7, align 4, !tbaa !18
  br label %220

179:                                              ; No predecessors!
  br label %180

180:                                              ; preds = %179
  br label %181

181:                                              ; preds = %180
  br label %182

182:                                              ; preds = %181
  br label %183

183:                                              ; preds = %182, %159
  br label %184

184:                                              ; preds = %183, %157
  %185 = getelementptr inbounds nuw %struct.H5VL_file_specific_args_t, ptr %5, i32 0, i32 0
  store i32 2, ptr %185, align 8, !tbaa !34
  %186 = load ptr, ptr %3, align 8, !tbaa !32
  %187 = getelementptr inbounds nuw %struct.H5VL_file_specific_args_t, ptr %5, i32 0, i32 1
  %188 = getelementptr inbounds nuw %struct.anon.17, ptr %187, i32 0, i32 0
  store ptr %186, ptr %188, align 8, !tbaa !17
  %189 = load i64, ptr %4, align 8, !tbaa !3
  %190 = getelementptr inbounds nuw %struct.H5VL_file_specific_args_t, ptr %5, i32 0, i32 1
  %191 = getelementptr inbounds nuw %struct.anon.17, ptr %190, i32 0, i32 1
  store i64 %189, ptr %191, align 8, !tbaa !17
  %192 = getelementptr inbounds nuw %struct.H5VL_file_specific_args_t, ptr %5, i32 0, i32 1
  %193 = getelementptr inbounds nuw %struct.anon.17, ptr %192, i32 0, i32 2
  store ptr %6, ptr %193, align 8, !tbaa !17
  %194 = load i64, ptr @H5P_LST_DATASET_XFER_ID_g, align 8, !tbaa !3
  %195 = call i32 @H5VL_file_specific(ptr noundef null, ptr noundef %5, i64 noundef %194, ptr noundef null)
  %196 = icmp slt i32 %195, 0
  br i1 %196, label %197, label %216

197:                                              ; preds = %184
  br label %198

198:                                              ; preds = %197
  br label %199

199:                                              ; preds = %198
  br label %200

200:                                              ; preds = %199
  %201 = load i64, ptr @H5E_FILE_g, align 8, !tbaa !3
  %202 = load i64, ptr @H5E_NOTHDF5_g, align 8, !tbaa !3
  %203 = call i32 (ptr, ptr, i32, i64, i64, ptr, ...) @H5E_printf_stack(ptr noundef @.str, ptr noundef @__func__.H5Fis_accessible, i32 noundef 490, i64 noundef %201, i64 noundef %202, ptr noundef @.str.21)
  br label %204

204:                                              ; preds = %200
  br label %205

205:                                              ; preds = %204
  store i8 1, ptr %10, align 1, !tbaa !7
  %206 = load i8, ptr %10, align 1, !tbaa !7, !range !9, !noundef !10
  %207 = trunc i8 %206 to i1
  %208 = zext i1 %207 to i8
  store i8 %208, ptr %10, align 1, !tbaa !7
  br label %209

209:                                              ; preds = %205
  br label %210

210:                                              ; preds = %209
  br label %211

211:                                              ; preds = %210
  store i32 -1, ptr %7, align 4, !tbaa !18
  br label %220

212:                                              ; No predecessors!
  br label %213

213:                                              ; preds = %212
  br label %214

214:                                              ; preds = %213
  br label %215

215:                                              ; preds = %214
  br label %216

216:                                              ; preds = %215, %184
  %217 = load i8, ptr %6, align 1, !tbaa !7, !range !9, !noundef !10
  %218 = trunc i8 %217 to i1
  %219 = zext i1 %218 to i32
  store i32 %219, ptr %7, align 4, !tbaa !18
  br label %220

220:                                              ; preds = %216, %211, %178, %149, %119, %87, %49
  %221 = load i8, ptr %9, align 1, !tbaa !7, !range !9, !noundef !10
  %222 = trunc i8 %221 to i1
  %223 = xor i1 %222, true
  %224 = xor i1 %223, true
  %225 = zext i1 %224 to i32
  %226 = sext i32 %225 to i64
  %227 = call i64 @llvm.expect.i64(i64 %226, i64 1)
  %228 = icmp ne i64 %227, 0
  br i1 %228, label %229, label %231

229:                                              ; preds = %220
  %230 = call i32 @H5CX_pop(i1 noundef zeroext true)
  store i8 0, ptr %9, align 1, !tbaa !7
  br label %231

231:                                              ; preds = %229, %220
  %232 = load i8, ptr %10, align 1, !tbaa !7, !range !9, !noundef !10
  %233 = trunc i8 %232 to i1
  %234 = xor i1 %233, true
  %235 = xor i1 %234, true
  %236 = zext i1 %235 to i32
  %237 = sext i32 %236 to i64
  %238 = call i64 @llvm.expect.i64(i64 %237, i64 0)
  %239 = icmp ne i64 %238, 0
  br i1 %239, label %240, label %242

240:                                              ; preds = %231
  %241 = call i32 @H5E_dump_api_stack()
  br label %242

242:                                              ; preds = %240, %231
  %243 = load i32, ptr %7, align 4, !tbaa !18
  call void @llvm.lifetime.end.p0(i64 1, ptr %10) #5
  call void @llvm.lifetime.end.p0(i64 1, ptr %9) #5
  call void @llvm.lifetime.end.p0(i64 480, ptr %8) #5
  call void @llvm.lifetime.end.p0(i64 4, ptr %7) #5
  call void @llvm.lifetime.end.p0(i64 1, ptr %6) #5
  call void @llvm.lifetime.end.p0(i64 32, ptr %5) #5
  ret i32 %243
}