; Function Attrs: nounwind uwtable
define range(i32 -1, 2) i32 @H5Fis_accessible(ptr noundef %0, i64 noundef %1) local_unnamed_addr #0 {
  %3 = alloca %struct.H5VL_file_specific_args_t, align 8
  %4 = alloca i8, align 1
  %5 = alloca %struct.H5CX_node_t, align 8
  call void @llvm.lifetime.start.p0(i64 32, ptr nonnull %3) #6
  call void @llvm.lifetime.start.p0(i64 1, ptr nonnull %4) #6
  store i8 0, ptr %4, align 1, !tbaa !3
  call void @llvm.lifetime.start.p0(i64 480, ptr nonnull %5) #6
  call void @llvm.memset.p0.i64(ptr noundef nonnull align 8 dereferenceable(480) %5, i8 0, i64 480, i1 false)
  %6 = load i8, ptr @H5_libinit_g, align 1, !tbaa !3, !range !7, !noundef !8
  %7 = trunc nuw i8 %6 to i1
  %8 = load i8, ptr @H5_libterm_g, align 1, !range !7
  %9 = trunc nuw i8 %8 to i1
  %10 = select i1 %7, i1 true, i1 %9
  br i1 %10, label %18, label %11, !prof !9

11:                                               ; preds = %2
  %12 = tail call i32 @H5_init_library() #6
  %13 = icmp slt i32 %12, 0
  br i1 %13, label %14, label %._crit_edge, !prof !10

._crit_edge:                                      ; preds = %11
  %.pre = load i8, ptr @H5_libterm_g, align 1, !range !7
  br label %18

14:                                               ; preds = %11
  %15 = load i64, ptr @H5E_FUNC_g, align 8, !tbaa !11
  %16 = load i64, ptr @H5E_CANTINIT_g, align 8, !tbaa !11
  %17 = tail call i32 (ptr, ptr, i32, i64, i64, ptr, ...) @H5E_printf_stack(ptr noundef nonnull @.str, ptr noundef nonnull @__func__.H5Fis_accessible, i32 noundef 470, i64 noundef %15, i64 noundef %16, ptr noundef nonnull @.str.1) #6
  br label %.thread29

18:                                               ; preds = %._crit_edge, %2
  %19 = phi i8 [ %.pre, %._crit_edge ], [ %8, %2 ]
  %20 = load i8, ptr @H5F_init_g, align 1, !tbaa !3, !range !7, !noundef !8
  %21 = trunc nuw i8 %20 to i1
  %22 = trunc nuw i8 %19 to i1
  %23 = select i1 %21, i1 true, i1 %22
  br i1 %23, label %31, label %24, !prof !9

24:                                               ; preds = %18
  store i8 1, ptr @H5F_init_g, align 1, !tbaa !3
  %25 = tail call i32 @H5F__init_package() #6
  %26 = icmp slt i32 %25, 0
  br i1 %26, label %27, label %31, !prof !13

27:                                               ; preds = %24
  store i8 0, ptr @H5F_init_g, align 1, !tbaa !3
  %28 = load i64, ptr @H5E_FUNC_g, align 8, !tbaa !11
  %29 = load i64, ptr @H5E_CANTINIT_g, align 8, !tbaa !11
  %30 = tail call i32 (ptr, ptr, i32, i64, i64, ptr, ...) @H5E_printf_stack(ptr noundef nonnull @.str, ptr noundef nonnull @__func__.H5Fis_accessible, i32 noundef 470, i64 noundef %28, i64 noundef %29, ptr noundef nonnull @.str.2) #6
  br label %.thread29

31:                                               ; preds = %18, %24
  %32 = call i32 @H5CX_push(ptr noundef nonnull %5) #6
  %33 = icmp slt i32 %32, 0
  br i1 %33, label %34, label %38, !prof !10

34:                                               ; preds = %31
  %35 = load i64, ptr @H5E_FUNC_g, align 8, !tbaa !11
  %36 = load i64, ptr @H5E_CANTSET_g, align 8, !tbaa !11
  %37 = call i32 (ptr, ptr, i32, i64, i64, ptr, ...) @H5E_printf_stack(ptr noundef nonnull @.str, ptr noundef nonnull @__func__.H5Fis_accessible, i32 noundef 470, i64 noundef %35, i64 noundef %36, ptr noundef nonnull @.str.3) #6
  br label %.thread29

38:                                               ; preds = %31
  %39 = call i32 @H5E_clear_stack() #6
  %.not = icmp eq ptr %0, null
  br i1 %.not, label %42, label %40

40:                                               ; preds = %38
  %41 = load i8, ptr %0, align 1, !tbaa !18
  %.not19 = icmp eq i8 %41, 0
  br i1 %.not19, label %42, label %46

42:                                               ; preds = %38, %40
  %43 = load i64, ptr @H5E_ARGS_g, align 8, !tbaa !11
  %44 = load i64, ptr @H5E_BADRANGE_g, align 8, !tbaa !11
  %45 = call i32 (ptr, ptr, i32, i64, i64, ptr, ...) @H5E_printf_stack(ptr noundef nonnull @.str, ptr noundef nonnull @__func__.H5Fis_accessible, i32 noundef 474, i64 noundef %43, i64 noundef %44, ptr noundef nonnull @.str.19) #6
  br label %.thread35

46:                                               ; preds = %40
  %47 = icmp eq i64 %1, 0
  br i1 %47, label %48, label %50

48:                                               ; preds = %46
  %49 = load i64, ptr @H5P_LST_FILE_ACCESS_ID_g, align 8, !tbaa !11
  br label %57

50:                                               ; preds = %46
  %51 = load i64, ptr @H5P_CLS_FILE_ACCESS_ID_g, align 8, !tbaa !11
  %52 = call i32 @H5P_isa_class(i64 noundef %1, i64 noundef %51) #6
  %.not20 = icmp eq i32 %52, 1
  br i1 %.not20, label %57, label %53

53:                                               ; preds = %50
  %54 = load i64, ptr @H5E_ARGS_g, align 8, !tbaa !11
  %55 = load i64, ptr @H5E_BADTYPE_g, align 8, !tbaa !11
  %56 = call i32 (ptr, ptr, i32, i64, i64, ptr, ...) @H5E_printf_stack(ptr noundef nonnull @.str, ptr noundef nonnull @__func__.H5Fis_accessible, i32 noundef 480, i64 noundef %54, i64 noundef %55, ptr noundef nonnull @.str.20) #6
  br label %.thread35

57:                                               ; preds = %50, %48
  %.016 = phi i64 [ %49, %48 ], [ %1, %50 ]
  store i32 2, ptr %3, align 8, !tbaa !31
  %58 = getelementptr inbounds nuw i8, ptr %3, i64 8
  store ptr %0, ptr %58, align 8, !tbaa !18
  %59 = getelementptr inbounds nuw i8, ptr %3, i64 16
  store i64 %.016, ptr %59, align 8, !tbaa !18
  %60 = getelementptr inbounds nuw i8, ptr %3, i64 24
  store ptr %4, ptr %60, align 8, !tbaa !18
  %61 = load i64, ptr @H5P_LST_DATASET_XFER_ID_g, align 8, !tbaa !11
  %62 = call i32 @H5VL_file_specific(ptr noundef null, ptr noundef nonnull %3, i64 noundef %61, ptr noundef null) #6
  %63 = icmp slt i32 %62, 0
  br i1 %63, label %64, label %69

64:                                               ; preds = %57
  %65 = load i64, ptr @H5E_FILE_g, align 8, !tbaa !11
  %66 = load i64, ptr @H5E_NOTHDF5_g, align 8, !tbaa !11
  %67 = call i32 (ptr, ptr, i32, i64, i64, ptr, ...) @H5E_printf_stack(ptr noundef nonnull @.str, ptr noundef nonnull @__func__.H5Fis_accessible, i32 noundef 490, i64 noundef %65, i64 noundef %66, ptr noundef nonnull @.str.21) #6
  br label %.thread35

.thread35:                                        ; preds = %42, %53, %64
  %68 = call i32 @H5CX_pop(i1 noundef zeroext true) #6
  br label %.thread29

69:                                               ; preds = %57
  %70 = load i8, ptr %4, align 1, !tbaa !3, !range !7, !noundef !8
  %71 = zext nneg i8 %70 to i32
  %72 = call i32 @H5CX_pop(i1 noundef zeroext true) #6
  br label %74

.thread29:                                        ; preds = %34, %27, %14, %.thread35
  %73 = call i32 @H5E_dump_api_stack() #6
  br label %74

74:                                               ; preds = %69, %.thread29
  %.0152432 = phi i32 [ -1, %.thread29 ], [ %71, %69 ]
  call void @llvm.lifetime.end.p0(i64 480, ptr nonnull %5) #6
  call void @llvm.lifetime.end.p0(i64 1, ptr nonnull %4) #6
  call void @llvm.lifetime.end.p0(i64 32, ptr nonnull %3) #6
  ret i32 %.0152432
}